target datalayout = "e-m:e-p270:32:32-p271:32:32-p272:64:64-i64:64-i128:128-f80:128-n8:16:32:64-S128"
target triple = "x86_64-pc-linux-gnu"

%"class.llvm::CombinerHelper" = type { ptr, ptr, ptr, ptr, ptr, i8, ptr, ptr, ptr }
%"class.llvm::DebugLoc" = type { %"class.llvm::TypedTrackingMDRef" }
%"class.llvm::TypedTrackingMDRef" = type { %"class.llvm::TrackingMDRef" }
%"class.llvm::TrackingMDRef" = type { ptr }
%"class.llvm::Register" = type { i32 }
%"class.llvm::MachineOperand" = type { i32, %union.anon.200, ptr, %"union.llvm::MachineOperand::ContentsUnion" }
%union.anon.200 = type { i32 }
%"union.llvm::MachineOperand::ContentsUnion" = type { %"class.llvm::ArrayRef.201" }
%"class.llvm::ArrayRef.201" = type { ptr, i64 }
%"class.llvm::MachineInstr" = type <{ %"class.llvm::ilist_node_with_parent", ptr, ptr, ptr, [3 x i8], %"class.llvm::ArrayRecycler<llvm::MachineOperand>::Capacity", i32, %"class.llvm::PointerSumType", %"class.llvm::DebugLoc", i32, i16, [2 x i8] }>
%"class.llvm::ilist_node_with_parent" = type { %"class.llvm::ilist_node" }
%"class.llvm::ilist_node" = type { %"class.llvm::ilist_node_impl.205" }
%"class.llvm::ilist_node_impl.205" = type { %"class.llvm::ilist_node_base.206" }
%"class.llvm::ilist_node_base.206" = type { %"class.llvm::ilist_detail::node_base_prevnext.207" }
%"class.llvm::ilist_detail::node_base_prevnext.207" = type { %"class.llvm::PointerIntPair.208", ptr }
%"class.llvm::PointerIntPair.208" = type { %"struct.llvm::detail::PunnedPointer.209" }
%"struct.llvm::detail::PunnedPointer.209" = type { [8 x i8] }
%"class.llvm::ArrayRecycler<llvm::MachineOperand>::Capacity" = type { i8 }
%"class.llvm::PointerSumType" = type { %"union.llvm::PointerSumType<llvm::MachineInstr::ExtraInfoInlineKinds, llvm::PointerSumTypeMember<0, llvm::MachineMemOperand *>, llvm::PointerSumTypeMember<1, llvm::MCSymbol *>, llvm::PointerSumTypeMember<2, llvm::MCSymbol *>, llvm::PointerSumTypeMember<3, llvm::MachineInstr::ExtraInfo *>>::StorageT" }
%"union.llvm::PointerSumType<llvm::MachineInstr::ExtraInfoInlineKinds, llvm::PointerSumTypeMember<0, llvm::MachineMemOperand *>, llvm::PointerSumTypeMember<1, llvm::MCSymbol *>, llvm::PointerSumTypeMember<2, llvm::MCSymbol *>, llvm::PointerSumTypeMember<3, llvm::MachineInstr::ExtraInfo *>>::StorageT" = type { i64 }
%"class.std::optional.320" = type { %"struct.std::_Optional_base.321" }
%"struct.std::_Optional_base.321" = type { %"struct.std::_Optional_payload.323" }
%"struct.std::_Optional_payload.323" = type { %"struct.std::_Optional_payload.base.328", [7 x i8] }
%"struct.std::_Optional_payload.base.328" = type { %"struct.std::_Optional_payload_base.base.327" }
%"struct.std::_Optional_payload_base.base.327" = type <{ %"union.std::_Optional_payload_base<llvm::ValueAndVReg>::_Storage", i8 }>
%"union.std::_Optional_payload_base<llvm::ValueAndVReg>::_Storage" = type { %"struct.llvm::ValueAndVReg" }
%"struct.llvm::ValueAndVReg" = type { %"class.llvm::APInt", %"class.llvm::Register", [4 x i8] }
%"class.llvm::APInt" = type <{ %union.anon.326, i32, [4 x i8] }>
%union.anon.326 = type { i64 }
%"struct.std::_Optional_payload_base.325" = type <{ %"union.std::_Optional_payload_base<llvm::ValueAndVReg>::_Storage", i8, [7 x i8] }>

; Function Attrs: mustprogress nounwind uwtable
define linkonce_odr hidden noundef zeroext i1 @_ZNK4llvm5APInt12needsCleanupEv(ptr noundef nonnull align 8 dereferenceable(12) %0) #1 comdat align 2 {
  %2 = alloca ptr, align 8
  store ptr %0, ptr %2, align 8
  %3 = load ptr, ptr %2, align 8
  %4 = call noundef zeroext i1 @_ZNK4llvm5APInt12isSingleWordEv(ptr noundef nonnull align 8 dereferenceable(12) %3)
  %5 = xor i1 %4, true
  ret i1 %5
}

; Function Attrs: mustprogress nounwind uwtable
define linkonce_odr hidden void @_ZN4llvm5APIntD2Ev(ptr noundef nonnull align 8 dereferenceable(12) %0) unnamed_addr #1 comdat align 2 {
  %2 = alloca ptr, align 8
  store ptr %0, ptr %2, align 8
  %3 = load ptr, ptr %2, align 8
  %4 = call noundef zeroext i1 @_ZNK4llvm5APInt12needsCleanupEv(ptr noundef nonnull align 8 dereferenceable(12) %3)
  br i1 %4, label %5, label %11

5:                                                ; preds = %1
  %6 = getelementptr inbounds nuw %"class.llvm::APInt", ptr %3, i32 0, i32 0
  %7 = load ptr, ptr %6, align 8
  %8 = icmp eq ptr %7, null
  br i1 %8, label %10, label %9

9:                                                ; preds = %5
  call void @_ZdaPv(ptr noundef %7) #16
  br label %10

10:                                               ; preds = %9, %5
  br label %11

11:                                               ; preds = %10, %1
  ret void
}

; Function Attrs: mustprogress nounwind uwtable
define linkonce_odr hidden void @_ZNSt22_Optional_payload_baseIN4llvm12ValueAndVRegEE8_StorageIS1_Lb0EED2Ev(ptr noundef nonnull align 8 dereferenceable(24) %0) unnamed_addr #1 comdat align 2 {
  %2 = alloca ptr, align 8
  store ptr %0, ptr %2, align 8
  ret void
}

; Function Attrs: mustprogress nounwind uwtable
define linkonce_odr hidden void @_ZN4llvm12ValueAndVRegD2Ev(ptr noundef nonnull align 8 dereferenceable(20) %0) unnamed_addr #1 comdat align 2 {
  %2 = alloca ptr, align 8
  store ptr %0, ptr %2, align 8
  %3 = load ptr, ptr %2, align 8
  %4 = getelementptr inbounds nuw %"struct.llvm::ValueAndVReg", ptr %3, i32 0, i32 0
  call void @_ZN4llvm5APIntD2Ev(ptr noundef nonnull align 8 dereferenceable(12) %4) #2
  ret void
}

; Function Attrs: mustprogress nounwind uwtable
define linkonce_odr hidden noundef i32 @_ZN4llvm6detail19LeadingZerosCounterImLm8EE5countEm(i64 noundef %0) #1 comdat align 2 {
  %2 = alloca i32, align 4
  %3 = alloca i64, align 8
  store i64 %0, ptr %3, align 8
  %4 = load i64, ptr %3, align 8
  %5 = icmp eq i64 %4, 0
  br i1 %5, label %6, label %7

6:                                                ; preds = %1
  store i32 64, ptr %2, align 4
  br label %11

7:                                                ; preds = %1
  %8 = load i64, ptr %3, align 8
  %9 = call i64 @llvm.ctlz.i64(i64 %8, i1 true)
  %10 = trunc i64 %9 to i32
  store i32 %10, ptr %2, align 4
  br label %11

11:                                               ; preds = %7, %6
  %12 = load i32, ptr %2, align 4
  ret i32 %12
}

; Function Attrs: mustprogress nounwind uwtable
define linkonce_odr hidden void @_ZNSt22_Optional_payload_baseIN4llvm12ValueAndVRegEED2Ev(ptr noundef nonnull align 8 dereferenceable(25) %0) unnamed_addr #1 comdat align 2 {
  %2 = alloca ptr, align 8
  store ptr %0, ptr %2, align 8
  %3 = load ptr, ptr %2, align 8
  %4 = getelementptr inbounds nuw %"struct.std::_Optional_payload_base.325", ptr %3, i32 0, i32 0
  call void @_ZNSt22_Optional_payload_baseIN4llvm12ValueAndVRegEE8_StorageIS1_Lb0EED2Ev(ptr noundef nonnull align 8 dereferenceable(24) %4) #2
  ret void
}

; Function Attrs: mustprogress nounwind uwtable
define linkonce_odr hidden void @_ZNSt22_Optional_payload_baseIN4llvm12ValueAndVRegEE10_M_destroyEv(ptr noundef nonnull align 8 dereferenceable(25) %0) #1 comdat align 2 {
  %2 = alloca ptr, align 8
  store ptr %0, ptr %2, align 8
  %3 = load ptr, ptr %2, align 8
  %4 = getelementptr inbounds nuw %"struct.std::_Optional_payload_base.325", ptr %3, i32 0, i32 1
  store i8 0, ptr %4, align 8
  %5 = getelementptr inbounds nuw %"struct.std::_Optional_payload_base.325", ptr %3, i32 0, i32 0
  call void @_ZN4llvm12ValueAndVRegD2Ev(ptr noundef nonnull align 8 dereferenceable(20) %5) #2
  ret void
}

; Function Attrs: mustprogress nounwind uwtable
define linkonce_odr noundef i32 @_ZN4llvm11countl_zeroImEEiT_(i64 noundef %0) #1 comdat {
  %2 = alloca i64, align 8
  store i64 %0, ptr %2, align 8
  %3 = load i64, ptr %2, align 8
  %4 = call noundef i32 @_ZN4llvm6detail19LeadingZerosCounterImLm8EE5countEm(i64 noundef %3)
  ret i32 %4
}

; Function Attrs: mustprogress nounwind uwtable
define linkonce_odr hidden void @_ZNSt17_Optional_payloadIN4llvm12ValueAndVRegELb1ELb0ELb0EED2Ev(ptr noundef nonnull align 8 dereferenceable(25) %0) unnamed_addr #1 comdat align 2 {
  %2 = alloca ptr, align 8
  store ptr %0, ptr %2, align 8
  %3 = load ptr, ptr %2, align 8
  call void @_ZNSt22_Optional_payload_baseIN4llvm12ValueAndVRegEED2Ev(ptr noundef nonnull align 8 dereferenceable(25) %3) #2
  ret void
}

; Function Attrs: mustprogress nounwind uwtable
define linkonce_odr hidden void @_ZNSt22_Optional_payload_baseIN4llvm12ValueAndVRegEE8_M_resetEv(ptr noundef nonnull align 8 dereferenceable(25) %0) #1 comdat align 2 {
  %2 = alloca ptr, align 8
  store ptr %0, ptr %2, align 8
  %3 = load ptr, ptr %2, align 8
  %4 = getelementptr inbounds nuw %"struct.std::_Optional_payload_base.325", ptr %3, i32 0, i32 1
  %5 = load i8, ptr %4, align 8
  %6 = trunc i8 %5 to i1
  br i1 %6, label %7, label %8

7:                                                ; preds = %1
  call void @_ZNSt22_Optional_payload_baseIN4llvm12ValueAndVRegEE10_M_destroyEv(ptr noundef nonnull align 8 dereferenceable(25) %3) #2
  br label %8

8:                                                ; preds = %7, %1
  ret void
}

; Function Attrs: mustprogress nounwind uwtable
define linkonce_odr hidden noundef i32 @_ZNK4llvm5APInt11countl_zeroEv(ptr noundef nonnull align 8 dereferenceable(12) %0) #1 comdat align 2 {
  %2 = alloca i32, align 4
  %3 = alloca ptr, align 8
  %4 = alloca i32, align 4
  store ptr %0, ptr %3, align 8
  %5 = load ptr, ptr %3, align 8
  %6 = call noundef zeroext i1 @_ZNK4llvm5APInt12isSingleWordEv(ptr noundef nonnull align 8 dereferenceable(12) %5)
  br i1 %6, label %7, label %16

7:                                                ; preds = %1
  %8 = getelementptr inbounds nuw %"class.llvm::APInt", ptr %5, i32 0, i32 1
  %9 = load i32, ptr %8, align 8
  %10 = sub i32 64, %9
  store i32 %10, ptr %4, align 4
  %11 = getelementptr inbounds nuw %"class.llvm::APInt", ptr %5, i32 0, i32 0
  %12 = load i64, ptr %11, align 8
  %13 = call noundef i32 @_ZN4llvm11countl_zeroImEEiT_(i64 noundef %12)
  %14 = load i32, ptr %4, align 4
  %15 = sub i32 %13, %14
  store i32 %15, ptr %2, align 4
  br label %18

16:                                               ; preds = %1
  %17 = call noundef i32 @_ZNK4llvm5APInt25countLeadingZerosSlowCaseEv(ptr noundef nonnull align 8 dereferenceable(12) %5) #15
  store i32 %17, ptr %2, align 4
  br label %18

18:                                               ; preds = %16, %7
  %19 = load i32, ptr %2, align 4
  ret i32 %19
}

; Function Attrs: mustprogress nounwind uwtable
define linkonce_odr hidden noundef zeroext i1 @_ZN4llvm14has_single_bitImvEEbT_(i64 noundef %0) #1 comdat {
  %2 = alloca i64, align 8
  store i64 %0, ptr %2, align 8
  %3 = load i64, ptr %2, align 8
  %4 = icmp ne i64 %3, 0
  br i1 %4, label %5, label %11

5:                                                ; preds = %1
  %6 = load i64, ptr %2, align 8
  %7 = load i64, ptr %2, align 8
  %8 = sub i64 %7, 1
  %9 = and i64 %6, %8
  %10 = icmp eq i64 %9, 0
  br label %11

11:                                               ; preds = %5, %1
  %12 = phi i1 [ false, %1 ], [ %10, %5 ]
  ret i1 %12
}

; Function Attrs: mustprogress nounwind uwtable
define linkonce_odr hidden void @_ZNSt17_Optional_payloadIN4llvm12ValueAndVRegELb0ELb0ELb0EED2Ev(ptr noundef nonnull align 8 dereferenceable(25) %0) unnamed_addr #1 comdat align 2 {
  %2 = alloca ptr, align 8
  store ptr %0, ptr %2, align 8
  %3 = load ptr, ptr %2, align 8
  call void @_ZNSt22_Optional_payload_baseIN4llvm12ValueAndVRegEE8_M_resetEv(ptr noundef nonnull align 8 dereferenceable(25) %3) #2
  call void @_ZNSt17_Optional_payloadIN4llvm12ValueAndVRegELb1ELb0ELb0EED2Ev(ptr noundef nonnull align 8 dereferenceable(25) %3) #2
  ret void
}

; Function Attrs: mustprogress nounwind uwtable
define linkonce_odr hidden noundef i32 @_ZNK4llvm5APInt13getActiveBitsEv(ptr noundef nonnull align 8 dereferenceable(12) %0) #1 comdat align 2 {
  %2 = alloca ptr, align 8
  store ptr %0, ptr %2, align 8
  %3 = load ptr, ptr %2, align 8
  %4 = getelementptr inbounds nuw %"class.llvm::APInt", ptr %3, i32 0, i32 1
  %5 = load i32, ptr %4, align 8
  %6 = call noundef i32 @_ZNK4llvm5APInt11countl_zeroEv(ptr noundef nonnull align 8 dereferenceable(12) %3)
  %7 = sub i32 %5, %6
  ret i32 %7
}

; Function Attrs: mustprogress nounwind uwtable
define linkonce_odr hidden noundef zeroext i1 @_ZN4llvm13isPowerOf2_64Em(i64 noundef %0) #1 comdat {
  %2 = alloca i64, align 8
  store i64 %0, ptr %2, align 8
  %3 = load i64, ptr %2, align 8
  %4 = call noundef zeroext i1 @_ZN4llvm14has_single_bitImvEEbT_(i64 noundef %3) #2
  ret i1 %4
}

; Function Attrs: mustprogress nounwind uwtable
define linkonce_odr hidden noundef zeroext i1 @_ZNK4llvm5APInt12isSingleWordEv(ptr noundef nonnull align 8 dereferenceable(12) %0) #1 comdat align 2 {
  %2 = alloca ptr, align 8
  store ptr %0, ptr %2, align 8
  %3 = load ptr, ptr %2, align 8
  %4 = getelementptr inbounds nuw %"class.llvm::APInt", ptr %3, i32 0, i32 1
  %5 = load i32, ptr %4, align 8
  %6 = icmp ule i32 %5, 64
  ret i1 %6
}

; Function Attrs: mustprogress nounwind uwtable
define linkonce_odr hidden noundef nonnull align 8 dereferenceable(20) ptr @_ZNSt22_Optional_payload_baseIN4llvm12ValueAndVRegEE6_M_getEv(ptr noundef nonnull align 8 dereferenceable(25) %0) #1 comdat align 2 {
  %2 = alloca ptr, align 8
  store ptr %0, ptr %2, align 8
  %3 = load ptr, ptr %2, align 8
  %4 = getelementptr inbounds nuw %"struct.std::_Optional_payload_base.325", ptr %3, i32 0, i32 0
  ret ptr %4
}

; Function Attrs: mustprogress nounwind uwtable
define linkonce_odr hidden void @_ZNSt14_Optional_baseIN4llvm12ValueAndVRegELb0ELb0EED2Ev(ptr noundef nonnull align 8 dereferenceable(32) %0) unnamed_addr #1 comdat align 2 {
  %2 = alloca ptr, align 8
  store ptr %0, ptr %2, align 8
  %3 = load ptr, ptr %2, align 8
  %4 = getelementptr inbounds nuw %"struct.std::_Optional_base.321", ptr %3, i32 0, i32 0
  call void @_ZNSt17_Optional_payloadIN4llvm12ValueAndVRegELb0ELb0ELb0EED2Ev(ptr noundef nonnull align 8 dereferenceable(25) %4) #2
  ret void
}

; Function Attrs: mustprogress nounwind uwtable
define linkonce_odr hidden noundef i32 @_ZNK4llvm5APInt8logBase2Ev(ptr noundef nonnull align 8 dereferenceable(12) %0) #1 comdat align 2 {
  %2 = alloca ptr, align 8
  store ptr %0, ptr %2, align 8
  %3 = load ptr, ptr %2, align 8
  %4 = call noundef i32 @_ZNK4llvm5APInt13getActiveBitsEv(ptr noundef nonnull align 8 dereferenceable(12) %3)
  %5 = sub i32 %4, 1
  ret i32 %5
}

; Function Attrs: mustprogress nounwind uwtable
define linkonce_odr hidden noundef zeroext i1 @_ZNK4llvm5APInt10isPowerOf2Ev(ptr noundef nonnull align 8 dereferenceable(12) %0) #1 comdat align 2 {
  %2 = alloca i1, align 1
  %3 = alloca ptr, align 8
  store ptr %0, ptr %3, align 8
  %4 = load ptr, ptr %3, align 8
  %5 = call noundef zeroext i1 @_ZNK4llvm5APInt12isSingleWordEv(ptr noundef nonnull align 8 dereferenceable(12) %4)
  br i1 %5, label %6, label %10

6:                                                ; preds = %1
  %7 = getelementptr inbounds nuw %"class.llvm::APInt", ptr %4, i32 0, i32 0
  %8 = load i64, ptr %7, align 8
  %9 = call noundef zeroext i1 @_ZN4llvm13isPowerOf2_64Em(i64 noundef %8)
  store i1 %9, ptr %2, align 1
  br label %13

10:                                               ; preds = %1
  %11 = call noundef i32 @_ZNK4llvm5APInt23countPopulationSlowCaseEv(ptr noundef nonnull align 8 dereferenceable(12) %4) #15
  %12 = icmp eq i32 %11, 1
  store i1 %12, ptr %2, align 1
  br label %13

13:                                               ; preds = %10, %6
  %14 = load i1, ptr %2, align 1
  ret i1 %14
}

; Function Attrs: mustprogress nounwind uwtable
define linkonce_odr hidden noundef nonnull align 8 dereferenceable(20) ptr @_ZNSt19_Optional_base_implIN4llvm12ValueAndVRegESt14_Optional_baseIS1_Lb0ELb0EEE6_M_getEv(ptr noundef nonnull align 1 dereferenceable(1) %0) #1 comdat align 2 {
  %2 = alloca ptr, align 8
  store ptr %0, ptr %2, align 8
  %3 = load ptr, ptr %2, align 8
  br label %4

4:                                                ; preds = %1
  br label %5

5:                                                ; preds = %4
  %6 = getelementptr inbounds nuw %"struct.std::_Optional_base.321", ptr %3, i32 0, i32 0
  %7 = call noundef nonnull align 8 dereferenceable(20) ptr @_ZNSt22_Optional_payload_baseIN4llvm12ValueAndVRegEE6_M_getEv(ptr noundef nonnull align 8 dereferenceable(25) %6) #2
  ret ptr %7
}

; Function Attrs: mustprogress nounwind uwtable
define linkonce_odr hidden noundef zeroext i1 @_ZNKSt19_Optional_base_implIN4llvm12ValueAndVRegESt14_Optional_baseIS1_Lb0ELb0EEE13_M_is_engagedEv(ptr noundef nonnull align 1 dereferenceable(1) %0) #1 comdat align 2 {
  %2 = alloca ptr, align 8
  store ptr %0, ptr %2, align 8
  %3 = load ptr, ptr %2, align 8
  %4 = getelementptr inbounds nuw %"struct.std::_Optional_base.321", ptr %3, i32 0, i32 0
  %5 = getelementptr inbounds nuw %"struct.std::_Optional_payload_base.325", ptr %4, i32 0, i32 1
  %6 = load i8, ptr %5, align 8
  %7 = trunc i8 %6 to i1
  ret i1 %7
}

; Function Attrs: mustprogress nounwind uwtable
define linkonce_odr hidden void @_ZN4llvm8RegisterC2Ej(ptr noundef nonnull align 4 dereferenceable(4) %0, i32 noundef %1) unnamed_addr #1 comdat align 2 {
  %3 = alloca ptr, align 8
  %4 = alloca i32, align 4
  store ptr %0, ptr %3, align 8
  store i32 %1, ptr %4, align 4
  %5 = load ptr, ptr %3, align 8
  %6 = getelementptr inbounds nuw %"class.llvm::Register", ptr %5, i32 0, i32 0
  %7 = load i32, ptr %4, align 4
  store i32 %7, ptr %6, align 4
  ret void
}

; Function Attrs: mustprogress nounwind uwtable
define linkonce_odr hidden void @_ZNSt8optionalIN4llvm12ValueAndVRegEED2Ev(ptr noundef nonnull align 8 dereferenceable(32) %0) unnamed_addr #1 comdat align 2 {
  %2 = alloca ptr, align 8
  store ptr %0, ptr %2, align 8
  %3 = load ptr, ptr %2, align 8
  call void @_ZNSt14_Optional_baseIN4llvm12ValueAndVRegELb0ELb0EED2Ev(ptr noundef nonnull align 8 dereferenceable(32) %3) #2
  ret void
}

; Function Attrs: mustprogress nounwind uwtable
define linkonce_odr hidden noundef i32 @_ZNK4llvm5APInt13exactLogBase2Ev(ptr noundef nonnull align 8 dereferenceable(12) %0) #1 comdat align 2 {
  %2 = alloca i32, align 4
  %3 = alloca ptr, align 8
  store ptr %0, ptr %3, align 8
  %4 = load ptr, ptr %3, align 8
  %5 = call noundef zeroext i1 @_ZNK4llvm5APInt10isPowerOf2Ev(ptr noundef nonnull align 8 dereferenceable(12) %4)
  br i1 %5, label %7, label %6

6:                                                ; preds = %1
  store i32 -1, ptr %2, align 4
  br label %9

7:                                                ; preds = %1
  %8 = call noundef i32 @_ZNK4llvm5APInt8logBase2Ev(ptr noundef nonnull align 8 dereferenceable(12) %4)
  store i32 %8, ptr %2, align 4
  br label %9

9:                                                ; preds = %7, %6
  %10 = load i32, ptr %2, align 4
  ret i32 %10
}

; Function Attrs: mustprogress nounwind uwtable
define linkonce_odr hidden noundef ptr @_ZNSt8optionalIN4llvm12ValueAndVRegEEptEv(ptr noundef nonnull align 8 dereferenceable(32) %0) #1 comdat align 2 {
  %2 = alloca ptr, align 8
  store ptr %0, ptr %2, align 8
  %3 = load ptr, ptr %2, align 8
  %4 = call noundef nonnull align 8 dereferenceable(20) ptr @_ZNSt19_Optional_base_implIN4llvm12ValueAndVRegESt14_Optional_baseIS1_Lb0ELb0EEE6_M_getEv(ptr noundef nonnull align 1 dereferenceable(1) %3) #2
  ret ptr %4
}

; Function Attrs: mustprogress nounwind uwtable
define linkonce_odr hidden noundef zeroext i1 @_ZNKSt8optionalIN4llvm12ValueAndVRegEEcvbEv(ptr noundef nonnull align 8 dereferenceable(32) %0) #1 comdat align 2 {
  %2 = alloca ptr, align 8
  store ptr %0, ptr %2, align 8
  %3 = load ptr, ptr %2, align 8
  %4 = call noundef zeroext i1 @_ZNKSt19_Optional_base_implIN4llvm12ValueAndVRegESt14_Optional_baseIS1_Lb0ELb0EEE13_M_is_engagedEv(ptr noundef nonnull align 1 dereferenceable(1) %3) #2
  ret i1 %4
}

; Function Attrs: mustprogress nounwind uwtable
define linkonce_odr hidden i32 @_ZNK4llvm14MachineOperand6getRegEv(ptr noundef nonnull align 8 dereferenceable(32) %0) #1 comdat align 2 {
  %2 = alloca %"class.llvm::Register", align 4
  %3 = alloca ptr, align 8
  store ptr %0, ptr %3, align 8
  %4 = load ptr, ptr %3, align 8
  %5 = getelementptr inbounds nuw %"class.llvm::MachineOperand", ptr %4, i32 0, i32 1
  %6 = load i32, ptr %5, align 4
  call void @_ZN4llvm8RegisterC2Ej(ptr noundef nonnull align 4 dereferenceable(4) %2, i32 noundef %6)
  %7 = getelementptr inbounds nuw %"class.llvm::Register", ptr %2, i32 0, i32 0
  %8 = load i32, ptr %7, align 4
  ret i32 %8
}

; Function Attrs: mustprogress nounwind uwtable
define linkonce_odr hidden noundef nonnull align 8 dereferenceable(32) ptr @_ZN4llvm12MachineInstr10getOperandEj(ptr noundef nonnull align 8 dereferenceable(70) %0, i32 noundef %1) #1 comdat align 2 {
  %3 = alloca ptr, align 8
  %4 = alloca i32, align 4
  store ptr %0, ptr %3, align 8
  store i32 %1, ptr %4, align 4
  %5 = load ptr, ptr %3, align 8
  %6 = getelementptr inbounds nuw %"class.llvm::MachineInstr", ptr %5, i32 0, i32 3
  %7 = load ptr, ptr %6, align 8
  %8 = load i32, ptr %4, align 4
  %9 = zext i32 %8 to i64
  %10 = getelementptr inbounds %"class.llvm::MachineOperand", ptr %7, i64 %9
  ret ptr %10
}

; Function Attrs: mustprogress nounwind uwtable
define dso_local noundef zeroext i1 @_ZN4llvm14CombinerHelper20matchCombineMulToShlERNS_12MachineInstrERj(ptr noundef nonnull align 8 dereferenceable(72) %0, ptr noundef nonnull align 8 dereferenceable(70) %1, ptr noundef nonnull align 4 dereferenceable(4) %2) #1 align 2 {
  %4 = alloca i1, align 1
  %5 = alloca ptr, align 8
  %6 = alloca ptr, align 8
  %7 = alloca ptr, align 8
  %8 = alloca %"class.std::optional.320", align 8
  %9 = alloca %"class.llvm::Register", align 4
  %10 = alloca i32, align 4
  store ptr %0, ptr %5, align 8
  store ptr %1, ptr %6, align 8
  store ptr %2, ptr %7, align 8
  %11 = load ptr, ptr %5, align 8
  %12 = load ptr, ptr %6, align 8
  %13 = call noundef nonnull align 8 dereferenceable(32) ptr @_ZN4llvm12MachineInstr10getOperandEj(ptr noundef nonnull align 8 dereferenceable(70) %12, i32 noundef 2)
  %14 = call i32 @_ZNK4llvm14MachineOperand6getRegEv(ptr noundef nonnull align 8 dereferenceable(32) %13)
  %15 = getelementptr inbounds nuw %"class.llvm::Register", ptr %9, i32 0, i32 0
  store i32 %14, ptr %15, align 4
  %16 = getelementptr inbounds nuw %"class.llvm::CombinerHelper", ptr %11, i32 0, i32 1
  %17 = load ptr, ptr %16, align 8
  %18 = getelementptr inbounds nuw %"class.llvm::Register", ptr %9, i32 0, i32 0
  %19 = load i32, ptr %18, align 4
  call void @_ZN4llvm34getIConstantVRegValWithLookThroughENS_8RegisterERKNS_19MachineRegisterInfoEb(ptr dead_on_unwind writable sret(%"class.std::optional.320") align 8 %8, i32 %19, ptr noundef nonnull align 8 dereferenceable(512) %17, i1 noundef zeroext true)
  %20 = call noundef zeroext i1 @_ZNKSt8optionalIN4llvm12ValueAndVRegEEcvbEv(ptr noundef nonnull align 8 dereferenceable(32) %8) #2
  br i1 %20, label %22, label %21

21:                                               ; preds = %3
  store i1 false, ptr %4, align 1
  store i32 1, ptr %10, align 4
  br label %30

22:                                               ; preds = %3
  %23 = call noundef ptr @_ZNSt8optionalIN4llvm12ValueAndVRegEEptEv(ptr noundef nonnull align 8 dereferenceable(32) %8) #2
  %24 = getelementptr inbounds nuw %"struct.llvm::ValueAndVReg", ptr %23, i32 0, i32 0
  %25 = call noundef i32 @_ZNK4llvm5APInt13exactLogBase2Ev(ptr noundef nonnull align 8 dereferenceable(12) %24)
  %26 = load ptr, ptr %7, align 8
  store i32 %25, ptr %26, align 4
  %27 = load ptr, ptr %7, align 8
  %28 = load i32, ptr %27, align 4
  %29 = icmp ne i32 %28, -1
  store i1 %29, ptr %4, align 1
  store i32 1, ptr %10, align 4
  br label %30

30:                                               ; preds = %22, %21
  call void @_ZNSt8optionalIN4llvm12ValueAndVRegEED2Ev(ptr noundef nonnull align 8 dereferenceable(32) %8) #2
  %31 = load i1, ptr %4, align 1
  ret i1 %31
}