; Function Attrs: mustprogress nounwind uwtable
define dso_local noundef zeroext i1 @_ZN4llvm14CombinerHelper20matchCombineMulToShlERNS_12MachineInstrERj(ptr nocapture noundef nonnull readonly align 8 dereferenceable(72) %0, ptr nocapture noundef nonnull readonly align 8 dereferenceable(70) %1, ptr nocapture noundef nonnull writeonly align 4 dereferenceable(4) %2) local_unnamed_addr #0 align 2 {
  %4 = alloca %"class.std::optional.320", align 8
  %5 = getelementptr inbounds nuw i8, ptr %1, i64 32
  %6 = load ptr, ptr %5, align 8
  %7 = getelementptr inbounds i8, ptr %6, i64 68
  %8 = load i32, ptr %7, align 4
  %9 = getelementptr inbounds nuw i8, ptr %0, i64 8
  %10 = load ptr, ptr %9, align 8
  call void @_ZN4llvm34getIConstantVRegValWithLookThroughENS_8RegisterERKNS_19MachineRegisterInfoEb(ptr dead_on_unwind nonnull writable sret(%"class.std::optional.320") align 8 %4, i32 %8, ptr noundef nonnull align 8 dereferenceable(512) %10, i1 noundef zeroext true) #27
  %11 = getelementptr inbounds nuw i8, ptr %4, i64 24
  %12 = load i8, ptr %11, align 8
  %13 = trunc i8 %12 to i1
  br i1 %13, label %14, label %_ZNSt8optionalIN4llvm12ValueAndVRegEED2Ev.exit

14:                                               ; preds = %3
  %15 = getelementptr inbounds nuw i8, ptr %4, i64 8
  %16 = load i32, ptr %15, align 8
  %17 = icmp ult i32 %16, 65
  br i1 %17, label %18, label %21

18:                                               ; preds = %14
  %19 = load i64, ptr %4, align 8
  %20 = call range(i64 1, 65) i64 @llvm.ctpop.i64(i64 %19)
  %or.cond.i = icmp eq i64 %20, 1
  br i1 %or.cond.i, label %28, label %.thread9

.thread9:                                         ; preds = %18
  store i32 -1, ptr %2, align 4
  br label %_ZNSt8optionalIN4llvm12ValueAndVRegEED2Ev.exit

21:                                               ; preds = %14
  %22 = call noundef i32 @_ZNK4llvm5APInt23countPopulationSlowCaseEv(ptr noundef nonnull align 8 dereferenceable(12) %4) #30
  %23 = icmp eq i32 %22, 1
  br i1 %23, label %.thread11, label %.thread

.thread:                                          ; preds = %21
  store i32 -1, ptr %2, align 4
  br label %33

.thread11:                                        ; preds = %21
  %24 = call noundef i32 @_ZNK4llvm5APInt25countLeadingZerosSlowCaseEv(ptr noundef nonnull align 8 dereferenceable(12) %4) #30
  %25 = xor i32 %24, -1
  %26 = add i32 %16, %25
  store i32 %26, ptr %2, align 4
  %27 = icmp ne i32 %26, -1
  br label %33

28:                                               ; preds = %18
  %29 = call range(i64 0, 65) i64 @llvm.ctlz.i64(i64 %19, i1 false)
  %30 = trunc nuw nsw i64 %29 to i32
  %31 = sub nsw i32 63, %30
  store i32 %31, ptr %2, align 4
  %32 = icmp ne i64 %19, 0
  br label %_ZNSt8optionalIN4llvm12ValueAndVRegEED2Ev.exit

33:                                               ; preds = %.thread11, %.thread
  %34 = phi i1 [ false, %.thread ], [ %27, %.thread11 ]
  store i8 0, ptr %11, align 8
  %35 = load ptr, ptr %4, align 8
  %36 = icmp eq ptr %35, null
  br i1 %36, label %_ZNSt8optionalIN4llvm12ValueAndVRegEED2Ev.exit, label %37

37:                                               ; preds = %33
  call void @_ZdaPv(ptr noundef nonnull %35) #31
  br label %_ZNSt8optionalIN4llvm12ValueAndVRegEED2Ev.exit

_ZNSt8optionalIN4llvm12ValueAndVRegEED2Ev.exit:   ; preds = %28, %.thread9, %3, %33, %37
  %.06 = phi i1 [ %32, %28 ], [ %34, %33 ], [ %34, %37 ], [ false, %3 ], [ false, %.thread9 ]
  ret i1 %.06
}